; ModuleID = '40/2785.c'
source_filename = "40/2785.c"
target datalayout = "e-m:e-p270:32:32-p271:32:32-p272:64:64-i64:64-f80:128-n8:16:32:64-S128"
target triple = "x86_64-pc-linux-gnu"

@.str = private unnamed_addr constant [6 x i8] c"%.4lf\00", align 1
@.str.1 = private unnamed_addr constant [14 x i8] c"Invalid input\00", align 1
@.str.2 = private unnamed_addr constant [16 x i8] c"%lf%lf%lf%lf%lf\00", align 1

; Function Attrs: noinline nounwind uwtable
define dso_local void @S(double %0, double %1, double %2, double %3, double %4) #0 {
  %6 = alloca double, align 8
  %7 = alloca double, align 8
  %8 = alloca double, align 8
  %9 = alloca double, align 8
  %10 = alloca double, align 8
  %11 = alloca double, align 8
  store double %0, double* %6, align 8
  store double %1, double* %7, align 8
  store double %2, double* %8, align 8
  store double %3, double* %9, align 8
  store double %4, double* %10, align 8
  %12 = load double, double* %6, align 8
  %13 = load double, double* %7, align 8
  %14 = fadd double %12, %13
  %15 = load double, double* %8, align 8
  %16 = fadd double %14, %15
  %17 = load double, double* %9, align 8
  %18 = fadd double %16, %17
  %19 = fdiv double %18, 2.000000e+00
  store double %19, double* %11, align 8
  %20 = load double, double* %11, align 8
  %21 = load double, double* %6, align 8
  %22 = fsub double %20, %21
  %23 = load double, double* %11, align 8
  %24 = load double, double* %7, align 8
  %25 = fsub double %23, %24
  %26 = fmul double %22, %25
  %27 = load double, double* %11, align 8
  %28 = load double, double* %8, align 8
  %29 = fsub double %27, %28
  %30 = fmul double %26, %29
  %31 = load double, double* %11, align 8
  %32 = load double, double* %9, align 8
  %33 = fsub double %31, %32
  %34 = fmul double %30, %33
  %35 = load double, double* %6, align 8
  %36 = load double, double* %7, align 8
  %37 = fmul double %35, %36
  %38 = load double, double* %8, align 8
  %39 = fmul double %37, %38
  %40 = load double, double* %9, align 8
  %41 = fmul double %39, %40
  %42 = load double, double* %10, align 8
  %43 = fmul double %42, 1.000000e+02
  %44 = fdiv double %43, 3.600000e+02
  %45 = call double @cos(double %44) #3
  %46 = fmul double %41, %45
  %47 = load double, double* %10, align 8
  %48 = fmul double %47, 1.000000e+02
  %49 = fdiv double %48, 3.600000e+02
  %50 = call double @cos(double %49) #3
  %51 = fmul double %46, %50
  %52 = fsub double %34, %51
  %53 = fcmp oge double %52, 0.000000e+00
  br i1 %53, label %54, label %90

54:                                               ; preds = %5
  %55 = load double, double* %11, align 8
  %56 = load double, double* %6, align 8
  %57 = fsub double %55, %56
  %58 = load double, double* %11, align 8
  %59 = load double, double* %7, align 8
  %60 = fsub double %58, %59
  %61 = fmul double %57, %60
  %62 = load double, double* %11, align 8
  %63 = load double, double* %8, align 8
  %64 = fsub double %62, %63
  %65 = fmul double %61, %64
  %66 = load double, double* %11, align 8
  %67 = load double, double* %9, align 8
  %68 = fsub double %66, %67
  %69 = fmul double %65, %68
  %70 = load double, double* %6, align 8
  %71 = load double, double* %7, align 8
  %72 = fmul double %70, %71
  %73 = load double, double* %8, align 8
  %74 = fmul double %72, %73
  %75 = load double, double* %9, align 8
  %76 = fmul double %74, %75
  %77 = load double, double* %10, align 8
  %78 = fmul double %77, 1.000000e+02
  %79 = fdiv double %78, 3.600000e+02
  %80 = call double @cos(double %79) #3
  %81 = fmul double %76, %80
  %82 = load double, double* %10, align 8
  %83 = fmul double %82, 1.000000e+02
  %84 = fdiv double %83, 3.600000e+02
  %85 = call double @cos(double %84) #3
  %86 = fmul double %81, %85
  %87 = fsub double %69, %86
  %88 = call double @pow(double %87, double 5.000000e-01) #3
  %89 = call i32 (i8*, ...) @printf(i8* getelementptr inbounds ([6 x i8], [6 x i8]* @.str, i64 0, i64 0), double %88)
  br label %92

90:                                               ; preds = %5
  %91 = call i32 (i8*, ...) @printf(i8* getelementptr inbounds ([14 x i8], [14 x i8]* @.str.1, i64 0, i64 0))
  br label %92

92:                                               ; preds = %90, %54
  ret void
}

; Function Attrs: nounwind
declare dso_local double @cos(double) #1

declare dso_local i32 @printf(i8*, ...) #2

; Function Attrs: nounwind
declare dso_local double @pow(double, double) #1

; Function Attrs: noinline nounwind uwtable
define dso_local i32 @main(i32 %0, i8** %1) #0 {
  %3 = alloca i32, align 4
  %4 = alloca i32, align 4
  %5 = alloca i8**, align 8
  %6 = alloca double, align 8
  %7 = alloca double, align 8
  %8 = alloca double, align 8
  %9 = alloca double, align 8
  %10 = alloca double, align 8
  store i32 0, i32* %3, align 4
  store i32 %0, i32* %4, align 4
  store i8** %1, i8*** %5, align 8
  %11 = call i32 (i8*, ...) @__isoc99_scanf(i8* getelementptr inbounds ([16 x i8], [16 x i8]* @.str.2, i64 0, i64 0), double* %6, double* %7, double* %8, double* %9, double* %10)
  %12 = load double, double* %6, align 8
  %13 = load double, double* %7, align 8
  %14 = load double, double* %8, align 8
  %15 = load double, double* %9, align 8
  %16 = load double, double* %10, align 8
  call void @S(double %12, double %13, double %14, double %15, double %16)
  ret i32 0
}

declare dso_local i32 @__isoc99_scanf(i8*, ...) #2


!llvm.module.flags = !{!0}
!llvm.ident = !{!1}

!0 = !{i32 1, !"wchar_size", i32 4}
!1 = !{!"clang version 10.0.0-4ubuntu1 "}
